target datalayout = "e-m:e-p270:32:32-p271:32:32-p272:64:64-i64:64-i128:128-f80:128-n8:16:32:64-S128"
target triple = "x86_64-unknown-linux-gnu"

%struct.QIOChannelWebsock = type { %struct.QIOChannel, ptr, %struct.Buffer, %struct.Buffer, %struct.Buffer, i64, i64, %union.QIOChannelWebsockMask, i32, ptr, i32, i8 }
%struct.QIOChannel = type { %struct.Object, i32, ptr, ptr, ptr, ptr, ptr, i8 }
%struct.Object = type { ptr, ptr, ptr, i32, ptr }
%struct.Buffer = type { ptr, i64, i64, i64, ptr }
%union.QIOChannelWebsockMask = type { i32 }
%struct.QIOChannelWebsockSource = type { %struct._GSource, ptr, i32 }
%struct._GSource = type { ptr, ptr, ptr, i32, ptr, i32, i32, i32, ptr, ptr, ptr, ptr, ptr }

@.str.2 = private unnamed_addr constant [12 x i8] c"qio-channel\00", align 1
@.str.3 = private unnamed_addr constant [99 x i8] c"/home/dtcxzyw/WorkSpace/Projects/compilers/llvm-opt-benchmark/bench/qemu/qemu/include/io/channel.h\00", align 1
@__func__.QIO_CHANNEL = private unnamed_addr constant [12 x i8] c"QIO_CHANNEL\00", align 1

; Function Attrs: nounwind sspstrong uwtable
define internal i32 @qio_channel_websock_source_check(ptr noundef %source) #0 {
entry:
  %source.addr = alloca ptr, align 8
  %wsource = alloca ptr, align 8
  %cond = alloca i32, align 4
  store ptr %source, ptr %source.addr, align 8
  %0 = load ptr, ptr %source.addr, align 8
  store ptr %0, ptr %wsource, align 8
  store i32 0, ptr %cond, align 4
  %1 = load ptr, ptr %wsource, align 8
  %wioc = getelementptr inbounds %struct.QIOChannelWebsockSource, ptr %1, i32 0, i32 1
  %2 = load ptr, ptr %wioc, align 8
  %rawinput = getelementptr inbounds %struct.QIOChannelWebsock, ptr %2, i32 0, i32 4
  %offset = getelementptr inbounds %struct.Buffer, ptr %rawinput, i32 0, i32 2
  %3 = load i64, ptr %offset, align 8
  %tobool = icmp ne i64 %3, 0
  br i1 %tobool, label %if.then, label %if.end

if.then:                                          ; preds = %entry
  %4 = load i32, ptr %cond, align 4
  %or = or i32 %4, 1
  store i32 %or, ptr %cond, align 4
  br label %if.end

if.end:                                           ; preds = %if.then, %entry
  %5 = load ptr, ptr %wsource, align 8
  %wioc1 = getelementptr inbounds %struct.QIOChannelWebsockSource, ptr %5, i32 0, i32 1
  %6 = load ptr, ptr %wioc1, align 8
  %encoutput = getelementptr inbounds %struct.QIOChannelWebsock, ptr %6, i32 0, i32 3
  %offset2 = getelementptr inbounds %struct.Buffer, ptr %encoutput, i32 0, i32 2
  %7 = load i64, ptr %offset2, align 8
  %cmp = icmp ult i64 %7, 8192
  br i1 %cmp, label %if.then3, label %if.end5

if.then3:                                         ; preds = %if.end
  %8 = load i32, ptr %cond, align 4
  %or4 = or i32 %8, 4
  store i32 %or4, ptr %cond, align 4
  br label %if.end5

if.end5:                                          ; preds = %if.then3, %if.end
  %9 = load ptr, ptr %wsource, align 8
  %wioc6 = getelementptr inbounds %struct.QIOChannelWebsockSource, ptr %9, i32 0, i32 1
  %10 = load ptr, ptr %wioc6, align 8
  %io_eof = getelementptr inbounds %struct.QIOChannelWebsock, ptr %10, i32 0, i32 10
  %11 = load i32, ptr %io_eof, align 8
  %tobool7 = icmp ne i32 %11, 0
  br i1 %tobool7, label %if.then8, label %if.end10

if.then8:                                         ; preds = %if.end5
  %12 = load i32, ptr %cond, align 4
  %or9 = or i32 %12, 16
  store i32 %or9, ptr %cond, align 4
  br label %if.end10

if.end10:                                         ; preds = %if.then8, %if.end5
  %13 = load ptr, ptr %wsource, align 8
  %wioc11 = getelementptr inbounds %struct.QIOChannelWebsockSource, ptr %13, i32 0, i32 1
  %14 = load ptr, ptr %wioc11, align 8
  %io_err = getelementptr inbounds %struct.QIOChannelWebsock, ptr %14, i32 0, i32 9
  %15 = load ptr, ptr %io_err, align 8
  %tobool12 = icmp ne ptr %15, null
  br i1 %tobool12, label %if.then13, label %if.end15

if.then13:                                        ; preds = %if.end10
  %16 = load i32, ptr %cond, align 4
  %or14 = or i32 %16, 8
  store i32 %or14, ptr %cond, align 4
  br label %if.end15

if.end15:                                         ; preds = %if.then13, %if.end10
  %17 = load i32, ptr %cond, align 4
  %18 = load ptr, ptr %wsource, align 8
  %condition = getelementptr inbounds %struct.QIOChannelWebsockSource, ptr %18, i32 0, i32 2
  %19 = load i32, ptr %condition, align 8
  %and = and i32 %17, %19
  ret i32 %and
}

; Function Attrs: nounwind sspstrong uwtable
define internal ptr @QIO_CHANNEL(ptr noundef %obj) #0 {
entry:
  %obj.addr = alloca ptr, align 8
  store ptr %obj, ptr %obj.addr, align 8
  %0 = load ptr, ptr %obj.addr, align 8
  %call = call ptr @object_dynamic_cast_assert(ptr noundef %0, ptr noundef @.str.2, ptr noundef @.str.3, i32 noundef 30, ptr noundef @__func__.QIO_CHANNEL)
  ret ptr %call
}

; Function Attrs: nounwind sspstrong uwtable
define internal i32 @qio_channel_websock_source_dispatch(ptr noundef %source, ptr noundef %callback, ptr noundef %user_data) #0 {
entry:
  %source.addr = alloca ptr, align 8
  %callback.addr = alloca ptr, align 8
  %user_data.addr = alloca ptr, align 8
  %func = alloca ptr, align 8
  %wsource = alloca ptr, align 8
  store ptr %source, ptr %source.addr, align 8
  store ptr %callback, ptr %callback.addr, align 8
  store ptr %user_data, ptr %user_data.addr, align 8
  %0 = load ptr, ptr %callback.addr, align 8
  store ptr %0, ptr %func, align 8
  %1 = load ptr, ptr %source.addr, align 8
  store ptr %1, ptr %wsource, align 8
  %2 = load ptr, ptr %func, align 8
  %3 = load ptr, ptr %wsource, align 8
  %wioc = getelementptr inbounds %struct.QIOChannelWebsockSource, ptr %3, i32 0, i32 1
  %4 = load ptr, ptr %wioc, align 8
  %call = call ptr @QIO_CHANNEL(ptr noundef %4)
  %5 = load ptr, ptr %source.addr, align 8
  %call1 = call i32 @qio_channel_websock_source_check(ptr noundef %5)
  %6 = load ptr, ptr %user_data.addr, align 8
  %call2 = call i32 %2(ptr noundef %call, i32 noundef %call1, ptr noundef %6)
  ret i32 %call2
}