; Function Attrs: nounwind sspstrong uwtable
define internal i32 @qio_channel_websock_source_dispatch(ptr noundef readonly captures(none) %source, ptr noundef readonly captures(none) %callback, ptr noundef %user_data) #0 {
entry:
  %wioc = getelementptr inbounds nuw i8, ptr %source, i64 96
  %0 = load ptr, ptr %wioc, align 8
  %call.i = tail call ptr @object_dynamic_cast_assert(ptr noundef %0, ptr noundef nonnull @.str.2, ptr noundef nonnull @.str.3, i32 noundef 30, ptr noundef nonnull @__func__.QIO_CHANNEL) #15
  %1 = load ptr, ptr %wioc, align 8
  %offset.i = getelementptr inbounds nuw i8, ptr %1, i64 200
  %2 = load i64, ptr %offset.i, align 8
  %tobool.not.i = icmp ne i64 %2, 0
  %spec.select.i = zext i1 %tobool.not.i to i32
  %offset2.i = getelementptr inbounds nuw i8, ptr %1, i64 160
  %3 = load i64, ptr %offset2.i, align 8
  %cmp.i = icmp ult i64 %3, 8192
  %or4.i = or disjoint i32 %spec.select.i, 4
  %cond.1.i = select i1 %cmp.i, i32 %or4.i, i32 %spec.select.i
  %io_eof.i = getelementptr inbounds nuw i8, ptr %1, i64 256
  %4 = load i32, ptr %io_eof.i, align 8
  %tobool7.not.i = icmp eq i32 %4, 0
  %or9.i = or disjoint i32 %cond.1.i, 16
  %cond.2.i = select i1 %tobool7.not.i, i32 %cond.1.i, i32 %or9.i
  %io_err.i = getelementptr inbounds nuw i8, ptr %1, i64 248
  %5 = load ptr, ptr %io_err.i, align 8
  %tobool12.not.i = icmp eq ptr %5, null
  %or14.i = or disjoint i32 %cond.2.i, 8
  %cond.3.i = select i1 %tobool12.not.i, i32 %cond.2.i, i32 %or14.i
  %condition.i = getelementptr inbounds nuw i8, ptr %source, i64 104
  %6 = load i32, ptr %condition.i, align 8
  %and.i = and i32 %cond.3.i, %6
  %call2 = tail call i32 %callback(ptr noundef %call.i, i32 noundef %and.i, ptr noundef %user_data) #15
  ret i32 %call2
}